; Function Attrs: mustprogress uwtable
define internal noundef nonnull ptr @"_ZNSt17_Function_handlerIFPN7xgboost11TreeUpdaterEPKNS0_7ContextEPKNS0_7ObjInfoEENS0_4tree3$_0EE9_M_invokeERKSt9_Any_dataOS5_OS8_"(ptr nonnull readnone align 8 captures(none) %0, ptr noundef nonnull readonly align 8 captures(none) dereferenceable(8) %1, ptr noundef nonnull readonly align 8 captures(none) dereferenceable(8) %2) #12 align 2 personality ptr @__gxx_personality_v0 {
  %.val = load ptr, ptr %1, align 8, !tbaa !49
  %.val3 = load ptr, ptr %2, align 8, !tbaa !51
  %4 = tail call noalias noundef nonnull dereferenceable(120) ptr @_Znwm(i64 noundef 120) #31
  invoke void @_ZN7xgboost4tree10TreePrunerC2EPKNS_7ContextEPKNS_7ObjInfoE(ptr noundef nonnull align 8 dereferenceable(120) %4, ptr noundef %.val, ptr noundef %.val3)
          to label %"_ZSt10__invoke_rIPN7xgboost11TreeUpdaterERNS0_4tree3$_0EJPKNS0_7ContextEPKNS0_7ObjInfoEEENSt9enable_ifIX16is_invocable_r_vIT_T0_DpT1_EESD_E4typeEOSE_DpOSF_.exit" unwind label %5

5:                                                ; preds = %3
  %6 = landingpad { ptr, i32 }
          cleanup
  tail call void @_ZdlPvm(ptr noundef nonnull %4, i64 noundef 120) #32
  resume { ptr, i32 } %6

"_ZSt10__invoke_rIPN7xgboost11TreeUpdaterERNS0_4tree3$_0EJPKNS0_7ContextEPKNS0_7ObjInfoEEENSt9enable_ifIX16is_invocable_r_vIT_T0_DpT1_EESD_E4typeEOSE_DpOSF_.exit": ; preds = %3
  ret ptr %4
}